; Function Attrs: mustprogress uwtable
define void @uiter_setState_77(ptr noundef %0, i32 noundef %1, ptr noundef %2) local_unnamed_addr #0 {
  %4 = icmp eq ptr %2, null
  br i1 %4, label %17, label %5

5:                                                ; preds = %3
  %6 = load i32, ptr %2, align 4, !tbaa !24
  %7 = icmp slt i32 %6, 1
  br i1 %7, label %8, label %17

8:                                                ; preds = %5
  %9 = icmp eq ptr %0, null
  br i1 %9, label %10, label %11

10:                                               ; preds = %8
  store i32 1, ptr %2, align 4, !tbaa !24
  br label %17

11:                                               ; preds = %8
  %12 = getelementptr inbounds nuw i8, ptr %0, i64 104
  %13 = load ptr, ptr %12, align 8, !tbaa !26
  %14 = icmp eq ptr %13, null
  br i1 %14, label %15, label %16

15:                                               ; preds = %11
  store i32 16, ptr %2, align 4, !tbaa !24
  br label %17

16:                                               ; preds = %11
  tail call void %13(ptr noundef nonnull %0, i32 noundef %1, ptr noundef nonnull %2)
  br label %17

17:                                               ; preds = %10, %16, %15, %3, %5
  ret void
}